# SymbolsHelper-Confirmed: 4:4.13.3 alpha arm64 armel armhf hppa hurd-i386 i386 kfreebsd-amd64 kfreebsd-i386 mips mipsel powerpc ppc64 s390x sparc
libbalooxapian.so.4 libbalooxapian4 #MINVER#
 _ZN5Baloo14XapianDatabase14deleteDocumentEj@Base 4:4.12.97
 _ZN5Baloo14XapianDatabase15replaceDocumentEjRKN6Xapian8DocumentE@Base 4:4.12.97
 _ZN5Baloo14XapianDatabase15replaceDocumentEjRKNS_14XapianDocumentE@Base 4:4.13.0
 _ZN5Baloo14XapianDatabase16createWritableDbEv@Base 4:4.13.0
 _ZN5Baloo14XapianDatabase6commitEv@Base 4:4.12.97
 _ZN5Baloo14XapianDatabase8documentEj@Base 4:4.12.97
 _ZN5Baloo14XapianDatabaseC1ERK7QStringb@Base 4:4.13.0
 _ZN5Baloo14XapianDatabaseC2ERK7QStringb@Base 4:4.13.0
 _ZN5Baloo14XapianDatabaseD1Ev@Base 4:4.13.1
 _ZN5Baloo14XapianDatabaseD2Ev@Base 4:4.13.1
 _ZN5Baloo14XapianDocument11addBoolTermERK7QStringS3_@Base 4:4.12.97
 _ZN5Baloo14XapianDocument11addBoolTermEiRK7QString@Base 4:4.12.97
 _ZN5Baloo14XapianDocument19fetchTermStartsWithERK10QByteArray@Base 4:4.12.97
 _ZN5Baloo14XapianDocument20removeTermStartsWithERK10QByteArray@Base 4:4.12.97
 _ZN5Baloo14XapianDocument7addTermERK7QStringS3_@Base 4:4.12.97
 _ZN5Baloo14XapianDocument8addValueEiRK7QString@Base 4:4.12.97
 _ZN5Baloo14XapianDocument9indexTextERK7QStringS3_i@Base 4:4.12.97
 _ZN5Baloo14XapianDocument9indexTextERK7QStringi@Base 4:4.12.97
 _ZN5Baloo14XapianDocumentC1ERKN6Xapian8DocumentE@Base 4:4.12.97
 _ZN5Baloo14XapianDocumentC1Ev@Base 4:4.12.97
 _ZN5Baloo14XapianDocumentC2ERKN6Xapian8DocumentE@Base 4:4.12.97
 _ZN5Baloo14XapianDocumentC2Ev@Base 4:4.12.97
 _ZN5Baloo17XapianSearchStore11docForQueryEi@Base 4:4.12.80
 _ZN5Baloo17XapianSearchStore13finalizeQueryERKN6Xapian5QueryE@Base 4:4.12.80
 _ZN5Baloo17XapianSearchStore13toXapianQueryEN6Xapian5Query2opERK5QListINS_4TermEE@Base 4:4.12.80
 _ZN5Baloo17XapianSearchStore13toXapianQueryERKNS_4TermE@Base 4:4.12.80
 _ZN5Baloo17XapianSearchStore18applyCustomOptionsERKN6Xapian5QueryERK5QHashI7QString8QVariantE@Base 4:4.12.80
 _ZN5Baloo17XapianSearchStore20constructFilterQueryEiii@Base 4:4.12.80
 _ZN5Baloo17XapianSearchStore20constructSearchQueryERK7QString@Base 4:4.12.80
 _ZN5Baloo17XapianSearchStore2idEi@Base 4:4.12.80
 _ZN5Baloo17XapianSearchStore3urlEi@Base 4:4.12.80
 _ZN5Baloo17XapianSearchStore4execERKNS_5QueryE@Base 4:4.12.80
 _ZN5Baloo17XapianSearchStore4nextEi@Base 4:4.12.80
 _ZN5Baloo17XapianSearchStore5closeEi@Base 4:4.12.80
 _ZN5Baloo17XapianSearchStore6ResultD1Ev@Base 4:4.12.80
 _ZN5Baloo17XapianSearchStore6ResultD2Ev@Base 4:4.12.80
 _ZN5Baloo17XapianSearchStore6dbPathEv@Base 4:4.12.80
 _ZN5Baloo17XapianSearchStore8andQueryERKN6Xapian5QueryES4_@Base 4:4.12.80
 _ZN5Baloo17XapianSearchStore8xapianDbEv@Base 4:4.12.80
 _ZN5Baloo17XapianSearchStore9setDbPathERK7QString@Base 4:4.12.80
 _ZN5Baloo17XapianSearchStoreC1EP7QObject@Base 4:4.12.80
 _ZN5Baloo17XapianSearchStoreC2EP7QObject@Base 4:4.12.80
 (optional=templinst)_ZN6Xapian5QueryC1IPS0_EENS0_2opET_S4_j@Base 4:4.12.80
 (optional=templinst)_ZN6Xapian5QueryC2IPS0_EENS0_2opET_S4_j@Base 4:4.12.80
 _ZNK5Baloo14XapianDocument3docEv@Base 4:4.13.0
 _ZTIN5Baloo17XapianSearchStoreE@Base 4:4.12.80
 _ZTIN6Xapian12RuntimeErrorE@Base 4:4.12.80
 _ZTIN6Xapian13DatabaseErrorE@Base 4:4.12.80
 _ZTIN6Xapian16DocNotFoundErrorE@Base 4:4.12.80
 _ZTIN6Xapian17DatabaseLockErrorE@Base 4:4.12.97
 _ZTIN6Xapian19DatabaseCreateErrorE@Base 4:4.13.0
 _ZTIN6Xapian20DatabaseCorruptErrorE@Base 4:4.13.0
 _ZTIN6Xapian20DatabaseOpeningErrorE@Base 4:4.12.80
 _ZTIN6Xapian21DatabaseModifiedErrorE@Base 4:4.12.80
 _ZTIN6Xapian5ErrorE@Base 4:4.12.80
 _ZTSN5Baloo17XapianSearchStoreE@Base 4:4.12.80
 _ZTSN6Xapian12RuntimeErrorE@Base 4:4.12.80
 _ZTSN6Xapian13DatabaseErrorE@Base 4:4.12.80
 _ZTSN6Xapian16DocNotFoundErrorE@Base 4:4.12.80
 _ZTSN6Xapian17DatabaseLockErrorE@Base 4:4.12.97
 _ZTSN6Xapian19DatabaseCreateErrorE@Base 4:4.13.0
 _ZTSN6Xapian20DatabaseCorruptErrorE@Base 4:4.13.0
 _ZTSN6Xapian20DatabaseOpeningErrorE@Base 4:4.12.80
 _ZTSN6Xapian21DatabaseModifiedErrorE@Base 4:4.12.80
 _ZTSN6Xapian5ErrorE@Base 4:4.12.80
 _ZTVN5Baloo17XapianSearchStoreE@Base 4:4.12.80
