# SymbolsHelper-Confirmed: 4:4.13.1 amd64
libbaloopim.so.4 libbaloopim4 #MINVER#, baloo
 _ZN5Baloo3PIM10EmailQuery11addInvolvesERK7QString@Base 4:4.12.80
 _ZN5Baloo3PIM10EmailQuery11bodyMatchesERK7QString@Base 4:4.12.80
 _ZN5Baloo3PIM10EmailQuery11setInvolvesERK11QStringList@Base 4:4.12.80
 _ZN5Baloo3PIM10EmailQuery12setImportantEb@Base 4:4.12.80
 _ZN5Baloo3PIM10EmailQuery13addCollectionEx@Base 4:4.12.80
 _ZN5Baloo3PIM10EmailQuery13setAttachmentEb@Base 4:4.12.80
 _ZN5Baloo3PIM10EmailQuery13setCollectionERK5QListIxE@Base 4:4.12.80
 _ZN5Baloo3PIM10EmailQuery13setSearchTypeENS1_6OpTypeE@Base 4:4.12.90
 _ZN5Baloo3PIM10EmailQuery14subjectMatchesERK7QString@Base 4:4.12.80
 _ZN5Baloo3PIM10EmailQuery4execEv@Base 4:4.12.80
 _ZN5Baloo3PIM10EmailQuery5addCcERK7QString@Base 4:4.12.80
 _ZN5Baloo3PIM10EmailQuery5addToERK7QString@Base 4:4.12.80
 _ZN5Baloo3PIM10EmailQuery5setCcERK11QStringList@Base 4:4.12.80
 _ZN5Baloo3PIM10EmailQuery5setToERK11QStringList@Base 4:4.12.80
 _ZN5Baloo3PIM10EmailQuery6addBccERK7QString@Base 4:4.12.80
 _ZN5Baloo3PIM10EmailQuery6setBccERK11QStringList@Base 4:4.12.80
 _ZN5Baloo3PIM10EmailQuery7PrivateC1Ev@Base 4:4.12.80
 _ZN5Baloo3PIM10EmailQuery7PrivateC2Ev@Base 4:4.12.80
 _ZN5Baloo3PIM10EmailQuery7addFromERK7QString@Base 4:4.12.80
 _ZN5Baloo3PIM10EmailQuery7matchesERK7QString@Base 4:4.12.80
 _ZN5Baloo3PIM10EmailQuery7setFromERK7QString@Base 4:4.12.80
 _ZN5Baloo3PIM10EmailQuery7setReadEb@Base 4:4.12.80
 _ZN5Baloo3PIM10EmailQuery8setLimitEi@Base 4:4.12.80
 _ZN5Baloo3PIM10EmailQueryC1Ev@Base 4:4.12.80
 _ZN5Baloo3PIM10EmailQueryC2Ev@Base 4:4.12.80
 _ZN5Baloo3PIM10EmailQueryD0Ev@Base 4:4.12.80
 _ZN5Baloo3PIM10EmailQueryD1Ev@Base 4:4.12.80
 _ZN5Baloo3PIM10EmailQueryD2Ev@Base 4:4.12.80
 _ZN5Baloo3PIM12ContactQuery10matchEmailERK7QString@Base 4:4.12.80
 _ZN5Baloo3PIM12ContactQuery13matchNicknameERK7QString@Base 4:4.12.80
 _ZN5Baloo3PIM12ContactQuery16setMatchCriteriaENS1_13MatchCriteriaE@Base 4:4.12.80
 _ZN5Baloo3PIM12ContactQuery4execEv@Base 4:4.12.80
 _ZN5Baloo3PIM12ContactQuery5matchERK7QString@Base 4:4.12.80
 _ZN5Baloo3PIM12ContactQuery8matchUIDERK7QString@Base 4:4.12.80
 _ZN5Baloo3PIM12ContactQuery8setLimitEi@Base 4:4.12.80
 _ZN5Baloo3PIM12ContactQuery9matchNameERK7QString@Base 4:4.12.80
 _ZN5Baloo3PIM12ContactQueryC1Ev@Base 4:4.12.80
 _ZN5Baloo3PIM12ContactQueryC2Ev@Base 4:4.12.80
 _ZN5Baloo3PIM12ContactQueryD0Ev@Base 4:4.12.80
 _ZN5Baloo3PIM12ContactQueryD1Ev@Base 4:4.12.80
 _ZN5Baloo3PIM12ContactQueryD2Ev@Base 4:4.12.80
 _ZN5Baloo3PIM14ResultIterator2idEv@Base 4:4.12.80
 _ZN5Baloo3PIM14ResultIterator4nextEv@Base 4:4.12.80
 _ZN5Baloo3PIM14ResultIteratorC1ERKS1_@Base 4:4.12.80
 _ZN5Baloo3PIM14ResultIteratorC1Ev@Base 4:4.12.80
 _ZN5Baloo3PIM14ResultIteratorC2ERKS1_@Base 4:4.12.80
 _ZN5Baloo3PIM14ResultIteratorC2Ev@Base 4:4.12.80
 _ZN5Baloo3PIM14ResultIteratorD1Ev@Base 4:4.12.80
 _ZN5Baloo3PIM14ResultIteratorD2Ev@Base 4:4.12.80
 _ZN5Baloo3PIM16ContactCompleter8completeEv@Base 4:4.12.80
 _ZN5Baloo3PIM16ContactCompleterC1ERK7QStringi@Base 4:4.12.80
 _ZN5Baloo3PIM16ContactCompleterC2ERK7QStringi@Base 4:4.12.80
 _ZN5Baloo3PIM5Query8fromJSONERK10QByteArray@Base 4:4.12.80
 _ZN5Baloo3PIM5QueryC1Ev@Base 4:4.12.80
 _ZN5Baloo3PIM5QueryC2Ev@Base 4:4.12.80
 _ZN5Baloo3PIM5QueryD0Ev@Base 4:4.12.80
 _ZN5Baloo3PIM5QueryD1Ev@Base 4:4.12.80
 _ZN5Baloo3PIM5QueryD2Ev@Base 4:4.12.80
 _ZN5Baloo3PIM9NoteQuery10matchTitleERK7QString@Base 4:4.12.80
 _ZN5Baloo3PIM9NoteQuery4execEv@Base 4:4.12.80
 _ZN5Baloo3PIM9NoteQuery8setLimitEi@Base 4:4.12.80
 _ZN5Baloo3PIM9NoteQuery9matchNoteERK7QString@Base 4:4.12.80
 _ZN5Baloo3PIM9NoteQueryC1Ev@Base 4:4.12.80
 _ZN5Baloo3PIM9NoteQueryC2Ev@Base 4:4.12.80
 _ZN5Baloo3PIM9NoteQueryD0Ev@Base 4:4.12.80
 _ZN5Baloo3PIM9NoteQueryD1Ev@Base 4:4.12.80
 _ZN5Baloo3PIM9NoteQueryD2Ev@Base 4:4.12.80
 (optional=gccinternal|arch=!amd64)_ZN6Xapian18ValuePostingSourceD0Ev@Base 4:4.12.80
 (optional=gccinternal|arch=!amd64)_ZN6Xapian18ValuePostingSourceD1Ev@Base 4:4.12.80
 (optional=gccinternal|arch=!amd64)_ZN6Xapian18ValuePostingSourceD2Ev@Base 4:4.12.80
 (optional=templinst)_ZN6Xapian5QueryC1IN5QListIS0_E8iteratorEEENS0_2opET_S6_j@Base 4:4.12.90
 (optional=templinst)_ZN6Xapian5QueryC2IN5QListIS0_E8iteratorEEENS0_2opET_S6_j@Base 4:4.12.90
 _ZNK5Baloo3PIM10EmailQuery5limitEv@Base 4:4.12.80
 _ZNK5Baloo3PIM12ContactQuery13matchCriteriaEv@Base 4:4.12.80
 _ZNK5Baloo3PIM12ContactQuery5limitEv@Base 4:4.12.80
 _ZNK5Baloo3PIM9NoteQuery5limitEv@Base 4:4.12.80
 (optional=templinst|arch=!amd64)_ZStplIcSt11char_traitsIcESaIcEESbIT_T0_T1_EPKS3_RKS6_@Base 4:4.12.80
 _ZTIN5Baloo3PIM10EmailQueryE@Base 4:4.12.80
 _ZTIN5Baloo3PIM12ContactQueryE@Base 4:4.12.80
 _ZTIN5Baloo3PIM5QueryE@Base 4:4.12.80
 _ZTIN5Baloo3PIM9NoteQueryE@Base 4:4.12.80
 _ZTIN6Xapian12RuntimeErrorE@Base 4:4.12.97
 _ZTIN6Xapian13DatabaseErrorE@Base 4:4.12.97
 _ZTIN6Xapian5ErrorE@Base 4:4.12.97
 _ZTSN5Baloo3PIM10EmailQueryE@Base 4:4.12.80
 _ZTSN5Baloo3PIM12ContactQueryE@Base 4:4.12.80
 _ZTSN5Baloo3PIM5QueryE@Base 4:4.12.80
 _ZTSN5Baloo3PIM9NoteQueryE@Base 4:4.12.80
 _ZTSN6Xapian12RuntimeErrorE@Base 4:4.12.97
 _ZTSN6Xapian13DatabaseErrorE@Base 4:4.12.97
 _ZTSN6Xapian5ErrorE@Base 4:4.12.97
 _ZTVN5Baloo3PIM10EmailQueryE@Base 4:4.12.80
 _ZTVN5Baloo3PIM12ContactQueryE@Base 4:4.12.80
 _ZTVN5Baloo3PIM5QueryE@Base 4:4.12.80
 _ZTVN5Baloo3PIM9NoteQueryE@Base 4:4.12.80
