# SymbolsHelper-Confirmed: 4:4.12.97 i386
libbaloocore.so.4 libbaloocore4 #MINVER#, baloo
 _ZN5Baloo11SearchStore11qt_metacallEN11QMetaObject4CallEiPPv@Base 4:4.12.80
 _ZN5Baloo11SearchStore11qt_metacastEPKc@Base 4:4.12.80
 _ZN5Baloo11SearchStore12searchStoresEv@Base 4:4.12.80
 _ZN5Baloo11SearchStore16staticMetaObjectE@Base 4:4.12.80
 _ZN5Baloo11SearchStore20overrideSearchStoresERK5QListIPS0_E@Base 4:4.12.80
 _ZN5Baloo11SearchStore3urlEi@Base 4:4.12.80
 _ZN5Baloo11SearchStore4iconEi@Base 4:4.12.80
 _ZN5Baloo11SearchStore4textEi@Base 4:4.12.80
 _ZN5Baloo11SearchStore8propertyEiRK7QString@Base 4:4.12.80
 _ZN5Baloo11SearchStoreC1EP7QObject@Base 4:4.12.80
 _ZN5Baloo11SearchStoreC2EP7QObject@Base 4:4.12.80
 _ZN5Baloo11SearchStoreD0Ev@Base 4:4.12.80
 _ZN5Baloo11SearchStoreD1Ev@Base 4:4.12.80
 _ZN5Baloo11SearchStoreD2Ev@Base 4:4.12.80
 _ZN5Baloo13QueryRunnable11qt_metacallEN11QMetaObject4CallEiPPv@Base 4:4.12.80
 _ZN5Baloo13QueryRunnable11qt_metacastEPKc@Base 4:4.12.80
 _ZN5Baloo13QueryRunnable11queryResultEPS0_RKNS_6ResultE@Base 4:4.12.80
 _ZN5Baloo13QueryRunnable16staticMetaObjectE@Base 4:4.12.80
 _ZN5Baloo13QueryRunnable3runEv@Base 4:4.12.80
 _ZN5Baloo13QueryRunnable4stopEv@Base 4:4.12.80
 _ZN5Baloo13QueryRunnable8finishedEPS0_@Base 4:4.12.80
 _ZN5Baloo13QueryRunnableC1ERKNS_5QueryEP7QObject@Base 4:4.12.80
 _ZN5Baloo13QueryRunnableC2ERKNS_5QueryEP7QObject@Base 4:4.12.80
 _ZN5Baloo13QueryRunnableD0Ev@Base 4:4.12.80
 _ZN5Baloo13QueryRunnableD1Ev@Base 4:4.12.80
 _ZN5Baloo13QueryRunnableD2Ev@Base 4:4.12.80
 _ZN5Baloo14ResultIterator4nextEv@Base 4:4.12.80
 _ZN5Baloo14ResultIteratorC1EiPNS_11SearchStoreE@Base 4:4.12.80
 _ZN5Baloo14ResultIteratorC1Ev@Base 4:4.12.80
 _ZN5Baloo14ResultIteratorC2EiPNS_11SearchStoreE@Base 4:4.12.80
 _ZN5Baloo14ResultIteratorC2Ev@Base 4:4.12.80
 _ZN5Baloo4Term10addSubTermERKS0_@Base 4:4.12.80
 _ZN5Baloo4Term11setNegationEb@Base 4:4.12.80
 _ZN5Baloo4Term11setPropertyERK7QString@Base 4:4.12.80
 _ZN5Baloo4Term11setSubTermsERK5QListIS0_E@Base 4:4.12.80
 _ZN5Baloo4Term11setUserDataERK7QStringRK8QVariant@Base 4:4.12.97
 _ZN5Baloo4Term12setOperationENS0_9OperationE@Base 4:4.12.80
 _ZN5Baloo4Term13setComparatorENS0_10ComparatorE@Base 4:4.12.80
 _ZN5Baloo4Term14fromVariantMapERK4QMapI7QString8QVariantE@Base 4:4.12.80
 _ZN5Baloo4Term8setValueERK8QVariant@Base 4:4.12.80
 _ZN5Baloo4TermC1ENS0_9OperationE@Base 4:4.12.80
 _ZN5Baloo4TermC1ENS0_9OperationERK5QListIS0_E@Base 4:4.12.80
 _ZN5Baloo4TermC1ENS0_9OperationERKS0_@Base 4:4.12.80
 _ZN5Baloo4TermC1ERK7QString@Base 4:4.12.80
 _ZN5Baloo4TermC1ERK7QStringRK8QVariantNS0_10ComparatorE@Base 4:4.12.80
 _ZN5Baloo4TermC1ERKS0_@Base 4:4.12.80
 _ZN5Baloo4TermC1Ev@Base 4:4.12.80
 _ZN5Baloo4TermC2ENS0_9OperationE@Base 4:4.12.80
 _ZN5Baloo4TermC2ENS0_9OperationERK5QListIS0_E@Base 4:4.12.80
 _ZN5Baloo4TermC2ENS0_9OperationERKS0_@Base 4:4.12.80
 _ZN5Baloo4TermC2ERK7QString@Base 4:4.12.80
 _ZN5Baloo4TermC2ERK7QStringRK8QVariantNS0_10ComparatorE@Base 4:4.12.80
 _ZN5Baloo4TermC2ERKS0_@Base 4:4.12.80
 _ZN5Baloo4TermC2Ev@Base 4:4.12.80
 _ZN5Baloo4TermD1Ev@Base 4:4.12.80
 _ZN5Baloo4TermD2Ev@Base 4:4.12.80
 _ZN5Baloo4TermaSERKS0_@Base 4:4.12.80
 _ZN5Baloo5Query11toSearchUrlERK7QString@Base 4:4.12.80
 _ZN5Baloo5Query13fromSearchUrlERK4QUrl@Base 4:4.12.80
 _ZN5Baloo5Query13setDateFilterEiii@Base 4:4.12.80
 _ZN5Baloo5Query15addCustomOptionERK7QStringRK8QVariant@Base 4:4.12.80
 _ZN5Baloo5Query15setSearchStringERK7QString@Base 4:4.12.80
 _ZN5Baloo5Query17titleFromQueryUrlERK4QUrl@Base 4:4.12.80
 _ZN5Baloo5Query18removeCustomOptionERK7QString@Base 4:4.12.80
 _ZN5Baloo5Query4execEv@Base 4:4.12.80
 _ZN5Baloo5Query6toJSONEv@Base 4:4.12.80
 _ZN5Baloo5Query7addTypeERK7QString@Base 4:4.12.80
 _ZN5Baloo5Query7setTermERKNS_4TermE@Base 4:4.12.80
 _ZN5Baloo5Query7setTypeERK7QString@Base 4:4.12.80
 _ZN5Baloo5Query8addTypesERK11QStringList@Base 4:4.12.80
 _ZN5Baloo5Query8fromJSONERK10QByteArray@Base 4:4.12.80
 _ZN5Baloo5Query8setLimitEj@Base 4:4.12.80
 _ZN5Baloo5Query8setTypesERK11QStringList@Base 4:4.12.80
 _ZN5Baloo5Query9setOffsetEj@Base 4:4.12.80
 _ZN5Baloo5QueryC1ERKNS_4TermE@Base 4:4.12.80
 _ZN5Baloo5QueryC1ERKS0_@Base 4:4.12.80
 _ZN5Baloo5QueryC1Ev@Base 4:4.12.80
 _ZN5Baloo5QueryC2ERKNS_4TermE@Base 4:4.12.80
 _ZN5Baloo5QueryC2ERKS0_@Base 4:4.12.80
 _ZN5Baloo5QueryC2Ev@Base 4:4.12.80
 _ZN5Baloo5QueryD1Ev@Base 4:4.12.80
 _ZN5Baloo5QueryD2Ev@Base 4:4.12.80
 _ZN5Baloo5QueryaSERKS0_@Base 4:4.12.80
 _ZN5Baloo6Result5setIdERK10QByteArray@Base 4:4.12.80
 _ZN5Baloo6Result6setUrlERK4QUrl@Base 4:4.12.80
 _ZN5Baloo6Result7setIconERK7QString@Base 4:4.12.80
 _ZN5Baloo6Result7setTextERK7QString@Base 4:4.12.80
 _ZN5Baloo6ResultC1ERKS0_@Base 4:4.12.80
 _ZN5Baloo6ResultC1Ev@Base 4:4.12.80
 _ZN5Baloo6ResultC2ERKS0_@Base 4:4.12.80
 _ZN5Baloo6ResultC2Ev@Base 4:4.12.80
 _ZN5Baloo6ResultD1Ev@Base 4:4.12.80
 _ZN5Baloo6ResultD2Ev@Base 4:4.12.80
 _ZN5Baloo6ResultaSERKS0_@Base 4:4.12.80
 _ZNK5Baloo11SearchStore10metaObjectEv@Base 4:4.12.80
 _ZNK5Baloo13QueryRunnable10metaObjectEv@Base 4:4.12.80
 _ZNK5Baloo14ResultIterator2idEv@Base 4:4.12.80
 _ZNK5Baloo14ResultIterator3urlEv@Base 4:4.12.80
 _ZNK5Baloo14ResultIterator4iconEv@Base 4:4.12.80
 _ZNK5Baloo14ResultIterator4textEv@Base 4:4.12.80
 _ZNK5Baloo14ResultIterator6resultEv@Base 4:4.12.80
 _ZNK5Baloo4Term10comparatorEv@Base 4:4.12.80
 _ZNK5Baloo4Term12toVariantMapEv@Base 4:4.12.80
 _ZNK5Baloo4Term5valueEv@Base 4:4.12.80
 _ZNK5Baloo4Term7isValidEv@Base 4:4.12.80
 _ZNK5Baloo4Term7negatedEv@Base 4:4.12.80
 _ZNK5Baloo4Term7subTermEv@Base 4:4.12.80
 _ZNK5Baloo4Term8propertyEv@Base 4:4.12.80
 _ZNK5Baloo4Term8subTermsEv@Base 4:4.12.80
 _ZNK5Baloo4Term8userDataERK7QString@Base 4:4.12.97
 _ZNK5Baloo4Term9isNegatedEv@Base 4:4.12.80
 _ZNK5Baloo4Term9operationEv@Base 4:4.12.80
 _ZNK5Baloo4TermeqERKS0_@Base 4:4.12.80
 _ZNK5Baloo5Query10yearFilterEv@Base 4:4.12.80
 _ZNK5Baloo5Query11monthFilterEv@Base 4:4.12.80
 _ZNK5Baloo5Query12customOptionERK7QString@Base 4:4.12.80
 _ZNK5Baloo5Query12searchStringEv@Base 4:4.12.80
 _ZNK5Baloo5Query13customOptionsEv@Base 4:4.12.80
 _ZNK5Baloo5Query4termEv@Base 4:4.12.80
 _ZNK5Baloo5Query5limitEv@Base 4:4.12.80
 _ZNK5Baloo5Query5typesEv@Base 4:4.12.80
 _ZNK5Baloo5Query6offsetEv@Base 4:4.12.80
 _ZNK5Baloo5Query9dayFilterEv@Base 4:4.12.80
 _ZNK5Baloo5QueryeqERKS0_@Base 4:4.12.80
 _ZNK5Baloo6Result2idEv@Base 4:4.12.80
 _ZNK5Baloo6Result3urlEv@Base 4:4.12.80
 _ZNK5Baloo6Result4iconEv@Base 4:4.12.80
 _ZNK5Baloo6Result4textEv@Base 4:4.12.80
 _ZTIN5Baloo11SearchStoreE@Base 4:4.12.80
 _ZTIN5Baloo13QueryRunnableE@Base 4:4.12.80
 _ZTSN5Baloo11SearchStoreE@Base 4:4.12.80
 _ZTSN5Baloo13QueryRunnableE@Base 4:4.12.80
 _ZTVN5Baloo11SearchStoreE@Base 4:4.12.80
 _ZTVN5Baloo13QueryRunnableE@Base 4:4.12.80
 (c++)"non-virtual thunk to Baloo::QueryRunnable::run()@Base" 4:4.12.80
 (c++)"non-virtual thunk to Baloo::QueryRunnable::~QueryRunnable()@Base" 4:4.12.80
