# SymbolsHelper-Confirmed: 4:4.12.97-0ubuntu2 amd64 i386
libbaloofiles.so.4 libbaloofiles4 #MINVER#
 _ZN5Baloo10TagListJob11qt_metacallEN11QMetaObject4CallEiPPv@Base 4:4.12.80
 _ZN5Baloo10TagListJob11qt_metacastEPKc@Base 4:4.12.80
 _ZN5Baloo10TagListJob16staticMetaObjectE@Base 4:4.12.80
 _ZN5Baloo10TagListJob4tagsEv@Base 4:4.12.80
 _ZN5Baloo10TagListJob5startEv@Base 4:4.12.80
 _ZN5Baloo10TagListJobC1EP7QObject@Base 4:4.12.80
 _ZN5Baloo10TagListJobC2EP7QObject@Base 4:4.12.80
 _ZN5Baloo10TagListJobD0Ev@Base 4:4.12.80
 _ZN5Baloo10TagListJobD1Ev@Base 4:4.12.80
 _ZN5Baloo10TagListJobD2Ev@Base 4:4.12.80
 _ZN5Baloo11FileMapping5clearEv@Base 4:4.12.80
 _ZN5Baloo11FileMapping5fetchE12QSqlDatabase@Base 4:4.12.80
 _ZN5Baloo11FileMapping5setIdEj@Base 4:4.12.80
 _ZN5Baloo11FileMapping6createE12QSqlDatabase@Base 4:4.12.80
 _ZN5Baloo11FileMapping6removeE12QSqlDatabase@Base 4:4.13.0
 _ZN5Baloo11FileMapping6setUrlERK7QString@Base 4:4.12.80
 _ZN5Baloo11FileMapping7fetchedEv@Base 4:4.12.80
 _ZN5Baloo11FileMappingC1ERK7QString@Base 4:4.12.80
 _ZN5Baloo11FileMappingC1Ej@Base 4:4.12.80
 _ZN5Baloo11FileMappingC1Ev@Base 4:4.12.80
 _ZN5Baloo11FileMappingC2ERK7QString@Base 4:4.12.80
 _ZN5Baloo11FileMappingC2Ej@Base 4:4.12.80
 _ZN5Baloo11FileMappingC2Ev@Base 4:4.12.80
 _ZN5Baloo11FileMonitor11qt_metacallEN11QMetaObject4CallEiPPv@Base 4:4.12.80
 _ZN5Baloo11FileMonitor11qt_metacastEPKc@Base 4:4.12.80
 _ZN5Baloo11FileMonitor16staticMetaObjectE@Base 4:4.12.80
 _ZN5Baloo11FileMonitor19fileMetaDataChangedERK7QString@Base 4:4.12.80
 _ZN5Baloo11FileMonitor23slotFileMetaDataChangedERK11QStringList@Base 4:4.12.80
 _ZN5Baloo11FileMonitor5clearEv@Base 4:4.12.80
 _ZN5Baloo11FileMonitor7addFileERK4QUrl@Base 4:4.12.80
 _ZN5Baloo11FileMonitor7addFileERK7QString@Base 4:4.12.80
 _ZN5Baloo11FileMonitor8setFilesERK11QStringList@Base 4:4.12.80
 _ZN5Baloo11FileMonitorC1EP7QObject@Base 4:4.12.80
 _ZN5Baloo11FileMonitorC2EP7QObject@Base 4:4.12.80
 _ZN5Baloo11FileMonitorD0Ev@Base 4:4.12.80
 _ZN5Baloo11FileMonitorD1Ev@Base 4:4.12.80
 _ZN5Baloo11FileMonitorD2Ev@Base 4:4.12.80
 _ZN5Baloo12FileFetchJob11qt_metacallEN11QMetaObject4CallEiPPv@Base 4:4.12.80
 _ZN5Baloo12FileFetchJob11qt_metacastEPKc@Base 4:4.12.80
 _ZN5Baloo12FileFetchJob12fileReceivedERKNS_4FileE@Base 4:4.12.80
 _ZN5Baloo12FileFetchJob16staticMetaObjectE@Base 4:4.12.80
 _ZN5Baloo12FileFetchJob5startEv@Base 4:4.12.80
 _ZN5Baloo12FileFetchJob7Private17fetchUserMetadataERNS_4FileE@Base 4:4.12.80
 _ZN5Baloo12FileFetchJob7doStartEv@Base 4:4.12.80
 _ZN5Baloo12FileFetchJobC1ERK11QStringListP7QObject@Base 4:4.12.80
 _ZN5Baloo12FileFetchJobC1ERK7QStringP7QObject@Base 4:4.12.80
 _ZN5Baloo12FileFetchJobC1ERKNS_4FileEP7QObject@Base 4:4.12.80
 _ZN5Baloo12FileFetchJobC2ERK11QStringListP7QObject@Base 4:4.12.80
 _ZN5Baloo12FileFetchJobC2ERK7QStringP7QObject@Base 4:4.12.80
 _ZN5Baloo12FileFetchJobC2ERKNS_4FileEP7QObject@Base 4:4.12.80
 _ZN5Baloo12FileFetchJobD0Ev@Base 4:4.12.80
 _ZN5Baloo12FileFetchJobD1Ev@Base 4:4.12.80
 _ZN5Baloo12FileFetchJobD2Ev@Base 4:4.12.80
 _ZN5Baloo13FileModifyJob10modifyTagsERK11QStringListS3_@Base 4:4.12.80
 _ZN5Baloo13FileModifyJob11qt_metacallEN11QMetaObject4CallEiPPv@Base 4:4.12.80
 _ZN5Baloo13FileModifyJob11qt_metacastEPKc@Base 4:4.12.80
 _ZN5Baloo13FileModifyJob12modifyRatingERK11QStringListi@Base 4:4.12.80
 _ZN5Baloo13FileModifyJob16staticMetaObjectE@Base 4:4.12.80
 _ZN5Baloo13FileModifyJob17modifyUserCommentERK11QStringListRK7QString@Base 4:4.12.80
 _ZN5Baloo13FileModifyJob5startEv@Base 4:4.12.80
 _ZN5Baloo13FileModifyJob7doStartEv@Base 4:4.12.80
 _ZN5Baloo13FileModifyJobC1EP7QObject@Base 4:4.12.80
 _ZN5Baloo13FileModifyJobC1ERKNS_4FileEP7QObject@Base 4:4.12.80
 _ZN5Baloo13FileModifyJobC2EP7QObject@Base 4:4.12.80
 _ZN5Baloo13FileModifyJobC2ERKNS_4FileEP7QObject@Base 4:4.12.80
 _ZN5Baloo13FileModifyJobD0Ev@Base 4:4.12.80
 _ZN5Baloo13FileModifyJobD1Ev@Base 4:4.12.80
 _ZN5Baloo13FileModifyJobD2Ev@Base 4:4.12.80
 _ZN5Baloo13IndexerConfigC1Ev@Base 4:4.12.80
 _ZN5Baloo13IndexerConfigC2Ev@Base 4:4.12.80
 _ZN5Baloo13IndexerConfigD1Ev@Base 4:4.12.80
 _ZN5Baloo13IndexerConfigD2Ev@Base 4:4.12.80
 _ZN5Baloo18customFileMetaDataERK7QStringS2_@Base 4:4.12.80
 _ZN5Baloo21setCustomFileMetaDataERK7QStringS2_S2_@Base 4:4.12.80
 _ZN5Baloo4File14setUserCommentERK7QString@Base 4:4.12.80
 _ZN5Baloo4File5setIdERK10QByteArray@Base 4:4.12.80
 _ZN5Baloo4File6addTagERK7QString@Base 4:4.12.80
 _ZN5Baloo4File6fromIdERK10QByteArray@Base 4:4.12.80
 _ZN5Baloo4File6setUrlERK7QString@Base 4:4.12.80
 _ZN5Baloo4File7setTagsERK11QStringList@Base 4:4.12.80
 _ZN5Baloo4File9setRatingEi@Base 4:4.12.80
 _ZN5Baloo4FileC1ERK7QString@Base 4:4.12.80
 _ZN5Baloo4FileC1ERKS0_@Base 4:4.12.80
 _ZN5Baloo4FileC1Ev@Base 4:4.12.80
 _ZN5Baloo4FileC2ERK7QString@Base 4:4.12.80
 _ZN5Baloo4FileC2ERKS0_@Base 4:4.12.80
 _ZN5Baloo4FileC2Ev@Base 4:4.12.80
 _ZN5Baloo4FileD1Ev@Base 4:4.12.80
 _ZN5Baloo4FileD2Ev@Base 4:4.12.80
 _ZN5Baloo4FileaSERKS0_@Base 4:4.12.80
 _ZNK5Baloo10TagListJob10metaObjectEv@Base 4:4.12.80
 _ZNK5Baloo11FileMapping2idEv@Base 4:4.12.80
 _ZNK5Baloo11FileMapping3urlEv@Base 4:4.12.80
 _ZNK5Baloo11FileMapping5emptyEv@Base 4:4.12.80
 _ZNK5Baloo11FileMappingeqERKS0_@Base 4:4.12.80
 _ZNK5Baloo11FileMonitor10metaObjectEv@Base 4:4.12.80
 _ZNK5Baloo11FileMonitor5filesEv@Base 4:4.12.80
 _ZNK5Baloo12FileFetchJob10metaObjectEv@Base 4:4.12.80
 _ZNK5Baloo12FileFetchJob4fileEv@Base 4:4.12.80
 _ZNK5Baloo12FileFetchJob5filesEv@Base 4:4.12.80
 _ZNK5Baloo13FileModifyJob10metaObjectEv@Base 4:4.12.80
 _ZNK5Baloo13IndexerConfig12balooEnabledEv@Base 4:4.12.80
 _ZNK5Baloo13IndexerConfig15shouldBeIndexedERK7QString@Base 4:4.12.80
 _ZNK5Baloo13IndexerConfig19fileIndexingEnabledEv@Base 4:4.12.80
 _ZNK5Baloo4File10propertiesEv@Base 4:4.12.80
 _ZNK5Baloo4File11userCommentEv@Base 4:4.12.80
 _ZNK5Baloo4File2idEv@Base 4:4.12.80
 _ZNK5Baloo4File3urlEv@Base 4:4.12.80
 _ZNK5Baloo4File4tagsEv@Base 4:4.12.80
 _ZNK5Baloo4File6ratingEv@Base 4:4.12.80
 _ZNK5Baloo4File8propertyEN13KFileMetaData8Property8PropertyE@Base 4:4.12.80
 _ZTIN5Baloo10TagListJobE@Base 4:4.12.80
 _ZTIN5Baloo11FileMonitorE@Base 4:4.12.80
 _ZTIN5Baloo12FileFetchJobE@Base 4:4.12.80
 _ZTIN5Baloo13FileModifyJobE@Base 4:4.12.80
 _ZTIN6Xapian10LogicErrorE@Base 4:4.12.80
 _ZTIN6Xapian12RuntimeErrorE@Base 4:4.12.80
 _ZTIN6Xapian13DatabaseErrorE@Base 4:4.12.80
 _ZTIN6Xapian16DocNotFoundErrorE@Base 4:4.12.80
 _ZTIN6Xapian20DatabaseOpeningErrorE@Base 4:4.12.80
 _ZTIN6Xapian20InvalidArgumentErrorE@Base 4:4.12.80
 _ZTIN6Xapian5ErrorE@Base 4:4.12.80
 _ZTSN5Baloo10TagListJobE@Base 4:4.12.80
 _ZTSN5Baloo11FileMonitorE@Base 4:4.12.80
 _ZTSN5Baloo12FileFetchJobE@Base 4:4.12.80
 _ZTSN5Baloo13FileModifyJobE@Base 4:4.12.80
 _ZTSN6Xapian10LogicErrorE@Base 4:4.12.80
 _ZTSN6Xapian12RuntimeErrorE@Base 4:4.12.80
 _ZTSN6Xapian13DatabaseErrorE@Base 4:4.12.80
 _ZTSN6Xapian16DocNotFoundErrorE@Base 4:4.12.80
 _ZTSN6Xapian20DatabaseOpeningErrorE@Base 4:4.12.80
 _ZTSN6Xapian20InvalidArgumentErrorE@Base 4:4.12.80
 _ZTSN6Xapian5ErrorE@Base 4:4.12.80
 _ZTVN5Baloo10TagListJobE@Base 4:4.12.80
 _ZTVN5Baloo11FileMonitorE@Base 4:4.12.80
 _ZTVN5Baloo12FileFetchJobE@Base 4:4.12.80
 _ZTVN5Baloo13FileModifyJobE@Base 4:4.12.80
